(lp1
(lp2
S'even'
p3
a(lp4
S' 2          '
p5
aS'      2     '
p6
aS'1       1   '
p7
aS'   1    2 2 '
p8
aS' 2       2  '
p9
aS'     1      '
p10
aS'  2   21 2  '
p11
aS'        1  1'
p12
aS'21     1    '
p13
aS'    1  2  1 '
p14
aS' 1      2   '
p15
aS'     S      '
p16
aaF1
aI1
aI00
a(lp17
(I1500
I0
tp18
a(I1200
I0
tp19
a(I1225
I0
tp20
a(I1250
I0
tp21
a(I1252
I0
tp22
a(I1552
I0
tp23
a(I1527
I0
tp24
a(I1502
I0
tp25
aa(lp26
(I5
I0
(tI-1
tp27
a(I4
I0
(tI-1
tp28
a(I4
I1
(tI-1
tp29
a(I4
I2
(tI-1
tp30
a(I4
I2
((I4
I2
ttp31
I-1
tp32
a(I5
I2
g31
I-1
tp33
a(I5
I1
g31
I-1
tp34
a(I5
I0
g31
I-1
tp35
aaa(lp36
g3
ag4
aF1
aI3
aI00
a(lp37
(I139500
I0
tp38
a(I111600
I0
tp39
a(I83700
I0
tp40
a(I55800
I0
tp41
a(I27900
I0
tp42
a(I30225
I0
tp43
a(I30226
I0
tp44
a(I32551
I0
tp45
a(I34876
I0
tp46
a(I34902
I0
tp47
a(I62802
I0
tp48
a(I90702
I0
tp49
a(I118602
I0
tp50
a(I116277
I0
tp51
a(I116568
I0
tp52
a(I144468
I0
tp53
a(I142143
I0
tp54
a(I139818
I0
tp55
aa(lp56
(I5
I0
(tI-1
tp57
a(I4
I0
(tI-1
tp58
a(I3
I0
(tI-1
tp59
a(I2
I0
(tI-1
tp60
a(I1
I0
(tI-1
tp61
a(I1
I1
(tI-1
tp62
a(I1
I1
((I1
I1
tp63
tp64
I-1
tp65
a(I1
I2
g64
I-1
tp66
a(I1
I3
g64
I-1
tp67
a(I1
I3
(g63
(I1
I3
tp68
tp69
I-1
tp70
a(I2
I3
g69
I-1
tp71
a(I3
I3
g69
I-1
tp72
a(I4
I3
g69
I-1
tp73
a(I4
I2
g69
I-1
tp74
a(I4
I2
(g63
g68
(I4
I2
ttp75
I-1
tp76
a(I5
I2
g75
I-1
tp77
a(I5
I1
g75
I-1
tp78
a(I5
I0
g75
I-1
tp79
aaa(lp80
g3
ag4
aF1
aI3
aI01
a(lp81
(I558000
I0
tp82
a(I446400
I0
tp83
a(I455700
I0
tp84
a(I465000
I0
tp85
a(I465009
I0
tp86
a(I576609
I0
tp87
a(I567309
I0
tp88
a(I558009
I0
tp89
a(I558008
I0
tp90
a(I446408
I0
tp91
a(I334808
I0
tp92
a(I223208
I0
tp93
a(I111608
I0
tp94
a(I120908
I0
tp95
a(I121001
I0
tp96
a(I232601
I0
tp97
a(I344201
I0
tp98
a(I455801
I0
tp99
a(I567401
I0
tp100
a(I558101
I0
tp101
a(I558100
I0
tp102
a(I669700
I0
tp103
a(I781300
I0
tp104
a(I790600
I0
tp105
a(I799900
I0
tp106
a(I809200
I0
tp107
a(I810311
I0
tp108
a(I698711
I0
tp109
a(I587111
I0
tp110
a(I577811
I0
tp111
a(I568511
I0
tp112
a(I559211
I0
tp113
aa(lp114
(I5
I0
(tI-1
tp115
a(I4
I0
(tI-1
tp116
a(I4
I1
(tI-1
tp117
a(I4
I2
(tI-1
tp118
a(I4
I2
((I4
I2
tp119
tp120
I0
tp121
a(I5
I2
g120
I0
tp122
a(I5
I1
g120
I0
tp123
a(I5
I0
g120
I0
tp124
a(I5
I0
g120
I-1
tp125
a(I4
I0
g120
I-1
tp126
a(I3
I0
g120
I-1
tp127
a(I2
I0
g120
I-1
tp128
a(I1
I0
g120
I-1
tp129
a(I1
I1
g120
I-1
tp130
a(I1
I1
((I1
I1
tp131
g119
tp132
I0
tp133
a(I2
I1
g132
I0
tp134
a(I3
I1
g132
I0
tp135
a(I4
I1
g132
I0
tp136
a(I5
I1
g132
I0
tp137
a(I5
I0
g132
I0
tp138
a(I5
I0
g132
I-1
tp139
a(I6
I0
g132
I-1
tp140
a(I7
I0
g132
I-1
tp141
a(I7
I1
g132
I-1
tp142
a(I7
I2
g132
I-1
tp143
a(I7
I3
g132
I-1
tp144
a(I7
I3
(g131
g119
(I7
I3
ttp145
I2
tp146
a(I6
I3
g145
I2
tp147
a(I5
I3
g145
I2
tp148
a(I5
I2
g145
I2
tp149
a(I5
I1
g145
I2
tp150
a(I5
I0
g145
I2
tp151
aaa(lp152
g3
ag4
aF0.5
aI1
aI00
a(lp153
(I1500
I0
tp154
a(I1200
I0
tp155
a(I1225
I0
tp156
a(I1250
I0
tp157
a(I1252
I0
tp158
a(I1552
I0
tp159
a(I1527
I0
tp160
a(I1502
I0
tp161
aa(lp162
(I5
I0
(tI-1
tp163
a(I4
I0
(tI-1
tp164
a(I4
I1
(tI-1
tp165
a(I4
I2
(tI-1
tp166
a(I4
I2
((I4
I2
ttp167
I-1
tp168
a(I5
I2
g167
I-1
tp169
a(I5
I1
g167
I-1
tp170
a(I5
I0
g167
I-1
tp171
aaa(lp172
g3
ag4
aF0.5
aI3
aI00
a(lp173
(I139500
I0
tp174
a(I111600
I0
tp175
a(I113925
I0
tp176
a(I116250
I0
tp177
a(I116252
I0
tp178
a(I144152
I0
tp179
a(I172052
I0
tp180
a(I199952
I0
tp181
a(I202277
I0
tp182
a(I202322
I0
tp183
a(I199997
I0
tp184
a(I200517
I0
tp185
a(I172617
I0
tp186
a(I144717
I0
tp187
a(I142392
I0
tp188
a(I140067
I0
tp189
aa(lp190
(I5
I0
(tI-1
tp191
a(I4
I0
(tI-1
tp192
a(I4
I1
(tI-1
tp193
a(I4
I2
(tI-1
tp194
a(I4
I2
((I4
I2
tp195
tp196
I-1
tp197
a(I5
I2
g196
I-1
tp198
a(I6
I2
g196
I-1
tp199
a(I7
I2
g196
I-1
tp200
a(I7
I3
g196
I-1
tp201
a(I7
I3
(g195
(I7
I3
tp202
tp203
I-1
tp204
a(I7
I2
g203
I-1
tp205
a(I7
I2
(g195
(I7
I2
tg202
tp206
I-1
tp207
a(I6
I2
g206
I-1
tp208
a(I5
I2
g206
I-1
tp209
a(I5
I1
g206
I-1
tp210
a(I5
I0
g206
I-1
tp211
aaa(lp212
g3
ag4
aF0.5
aI3
aI01
a(lp213
(I558000
I0
tp214
a(I446400
I0
tp215
a(I455700
I0
tp216
a(I465000
I0
tp217
a(I465009
I0
tp218
a(I576609
I0
tp219
a(I567309
I0
tp220
a(I558009
I0
tp221
a(I558008
I0
tp222
a(I669608
I0
tp223
a(I781208
I0
tp224
a(I892808
I0
tp225
a(I902108
I0
tp226
a(I902314
I0
tp227
a(I790714
I0
tp228
a(I679114
I0
tp229
a(I567514
I0
tp230
a(I558214
I0
tp231
a(I558212
I0
tp232
a(I669812
I0
tp233
a(I781412
I0
tp234
a(I790712
I0
tp235
a(I800012
I0
tp236
a(I802090
I0
tp237
a(I690490
I0
tp238
a(I578890
I0
tp239
a(I569590
I0
tp240
a(I560290
I0
tp241
aa(lp242
(I5
I0
(tI-1
tp243
a(I4
I0
(tI-1
tp244
a(I4
I1
(tI-1
tp245
a(I4
I2
(tI-1
tp246
a(I4
I2
((I4
I2
tp247
tp248
I0
tp249
a(I5
I2
g248
I0
tp250
a(I5
I1
g248
I0
tp251
a(I5
I0
g248
I0
tp252
a(I5
I0
g248
I-1
tp253
a(I6
I0
g248
I-1
tp254
a(I7
I0
g248
I-1
tp255
a(I8
I0
g248
I-1
tp256
a(I8
I1
g248
I-1
tp257
a(I8
I1
(g247
(I8
I1
tp258
tp259
I1
tp260
a(I7
I1
g259
I1
tp261
a(I6
I1
g259
I1
tp262
a(I5
I1
g259
I1
tp263
a(I5
I0
g259
I1
tp264
a(I5
I0
g259
I-1
tp265
a(I6
I0
g259
I-1
tp266
a(I7
I0
g259
I-1
tp267
a(I7
I1
g259
I-1
tp268
a(I7
I2
g259
I-1
tp269
a(I7
I2
(g247
(I7
I2
tg258
tp270
I1
tp271
a(I6
I2
g270
I1
tp272
a(I5
I2
g270
I1
tp273
a(I5
I1
g270
I1
tp274
a(I5
I0
g270
I1
tp275
aaa(lp276
S'more 2s than 1s, 2s closer'
p277
a(lp278
S' 1          '
p279
aS'      1     '
p280
ag7
ag8
ag9
aS'     2      '
p281
aS'  2   22 2  '
p282
aS'        2  2'
p283
aS'22     2    '
p284
aS'    2  2  2 '
p285
aS' 2      2   '
p286
ag16
aaF1
aI1
aI00
a(lp287
(I1500
I0
tp288
a(I1200
I0
tp289
a(I900
I0
tp290
a(I925
I0
tp291
a(I950
I0
tp292
a(I975
I0
tp293
a(I1000
I0
tp294
a(I1025
I0
tp295
a(I1050
I0
tp296
a(I1075
I0
tp297
a(I1100
I0
tp298
a(I1101
I0
tp299
a(I1401
I0
tp300
a(I1701
I0
tp301
a(I1676
I0
tp302
a(I1651
I0
tp303
a(I1626
I0
tp304
a(I1601
I0
tp305
a(I1576
I0
tp306
a(I1551
I0
tp307
a(I1526
I0
tp308
a(I1501
I0
tp309
aa(lp310
(I5
I0
(tI-1
tp311
a(I4
I0
(tI-1
tp312
a(I3
I0
(tI-1
tp313
a(I3
I1
(tI-1
tp314
a(I3
I2
(tI-1
tp315
a(I3
I3
(tI-1
tp316
a(I3
I4
(tI-1
tp317
a(I3
I5
(tI-1
tp318
a(I3
I6
(tI-1
tp319
a(I3
I7
(tI-1
tp320
a(I3
I8
(tI-1
tp321
a(I3
I8
((I3
I8
ttp322
I-1
tp323
a(I4
I8
g322
I-1
tp324
a(I5
I8
g322
I-1
tp325
a(I5
I7
g322
I-1
tp326
a(I5
I6
g322
I-1
tp327
a(I5
I5
g322
I-1
tp328
a(I5
I4
g322
I-1
tp329
a(I5
I3
g322
I-1
tp330
a(I5
I2
g322
I-1
tp331
a(I5
I1
g322
I-1
tp332
a(I5
I0
g322
I-1
tp333
aaa(lp334
g277
ag278
aF1
aI3
aI00
a(lp335
(I139500
I0
tp336
a(I111600
I0
tp337
a(I83700
I0
tp338
a(I86025
I0
tp339
a(I88350
I0
tp340
a(I90675
I0
tp341
a(I93000
I0
tp342
a(I95325
I0
tp343
a(I97650
I0
tp344
a(I99975
I0
tp345
a(I102300
I0
tp346
a(I102301
I0
tp347
a(I130201
I0
tp348
a(I158101
I0
tp349
a(I186001
I0
tp350
a(I213901
I0
tp351
a(I241801
I0
tp352
a(I244126
I0
tp353
a(I244150
I0
tp354
a(I216250
I0
tp355
a(I188350
I0
tp356
a(I190675
I0
tp357
a(I190956
I0
tp358
a(I163056
I0
tp359
a(I160731
I0
tp360
a(I158406
I0
tp361
a(I156081
I0
tp362
a(I153756
I0
tp363
a(I151431
I0
tp364
a(I149106
I0
tp365
a(I146781
I0
tp366
a(I144456
I0
tp367
a(I142131
I0
tp368
a(I139806
I0
tp369
aa(lp370
(I5
I0
(tI-1
tp371
a(I4
I0
(tI-1
tp372
a(I3
I0
(tI-1
tp373
a(I3
I1
(tI-1
tp374
a(I3
I2
(tI-1
tp375
a(I3
I3
(tI-1
tp376
a(I3
I4
(tI-1
tp377
a(I3
I5
(tI-1
tp378
a(I3
I6
(tI-1
tp379
a(I3
I7
(tI-1
tp380
a(I3
I8
(tI-1
tp381
a(I3
I8
((I3
I8
tp382
tp383
I-1
tp384
a(I4
I8
g383
I-1
tp385
a(I5
I8
g383
I-1
tp386
a(I6
I8
g383
I-1
tp387
a(I7
I8
g383
I-1
tp388
a(I8
I8
g383
I-1
tp389
a(I8
I9
g383
I-1
tp390
a(I8
I9
(g382
(I8
I9
tp391
tp392
I-1
tp393
a(I7
I9
g392
I-1
tp394
a(I6
I9
g392
I-1
tp395
a(I6
I10
g392
I-1
tp396
a(I6
I10
(g382
(I6
I10
tg391
tp397
I-1
tp398
a(I5
I10
g397
I-1
tp399
a(I5
I9
g397
I-1
tp400
a(I5
I8
g397
I-1
tp401
a(I5
I7
g397
I-1
tp402
a(I5
I6
g397
I-1
tp403
a(I5
I5
g397
I-1
tp404
a(I5
I4
g397
I-1
tp405
a(I5
I3
g397
I-1
tp406
a(I5
I2
g397
I-1
tp407
a(I5
I1
g397
I-1
tp408
a(I5
I0
g397
I-1
tp409
aaa(lp410
g277
ag278
aF1
aI3
aI01
a(lp411
(I558000
I0
tp412
a(I446400
I0
tp413
a(I334800
I0
tp414
a(I344100
I0
tp415
a(I353400
I0
tp416
a(I362700
I0
tp417
a(I372000
I0
tp418
a(I381300
I0
tp419
a(I390600
I0
tp420
a(I399900
I0
tp421
a(I409200
I0
tp422
a(I409205
I0
tp423
a(I520805
I0
tp424
a(I632405
I0
tp425
a(I623105
I0
tp426
a(I613805
I0
tp427
a(I604505
I0
tp428
a(I595205
I0
tp429
a(I585905
I0
tp430
a(I576605
I0
tp431
a(I567305
I0
tp432
a(I558005
I0
tp433
a(I558004
I0
tp434
a(I669604
I0
tp435
a(I678904
I0
tp436
a(I688204
I0
tp437
a(I697504
I0
tp438
a(I706804
I0
tp439
a(I716104
I0
tp440
a(I725404
I0
tp441
a(I734704
I0
tp442
a(I744004
I0
tp443
a(I753304
I0
tp444
a(I762604
I0
tp445
a(I762706
I0
tp446
a(I651106
I0
tp447
a(I641806
I0
tp448
a(I632506
I0
tp449
a(I623206
I0
tp450
a(I613906
I0
tp451
a(I604606
I0
tp452
a(I595306
I0
tp453
a(I586006
I0
tp454
a(I576706
I0
tp455
a(I567406
I0
tp456
a(I558106
I0
tp457
a(I558104
I0
tp458
a(I669704
I0
tp459
a(I781304
I0
tp460
a(I892904
I0
tp461
a(I902204
I0
tp462
a(I911504
I0
tp463
a(I920804
I0
tp464
a(I930104
I0
tp465
a(I939404
I0
tp466
a(I948704
I0
tp467
a(I958004
I0
tp468
a(I967304
I0
tp469
a(I976604
I0
tp470
a(I977727
I0
tp471
a(I866127
I0
tp472
a(I754527
I0
tp473
a(I642927
I0
tp474
a(I633627
I0
tp475
a(I624327
I0
tp476
a(I615027
I0
tp477
a(I605727
I0
tp478
a(I596427
I0
tp479
a(I587127
I0
tp480
a(I577827
I0
tp481
a(I568527
I0
tp482
a(I559227
I0
tp483
aa(lp484
(I5
I0
(tI-1
tp485
a(I4
I0
(tI-1
tp486
a(I3
I0
(tI-1
tp487
a(I3
I1
(tI-1
tp488
a(I3
I2
(tI-1
tp489
a(I3
I3
(tI-1
tp490
a(I3
I4
(tI-1
tp491
a(I3
I5
(tI-1
tp492
a(I3
I6
(tI-1
tp493
a(I3
I7
(tI-1
tp494
a(I3
I8
(tI-1
tp495
a(I3
I8
((I3
I8
tp496
tp497
I0
tp498
a(I4
I8
g497
I0
tp499
a(I5
I8
g497
I0
tp500
a(I5
I7
g497
I0
tp501
a(I5
I6
g497
I0
tp502
a(I5
I5
g497
I0
tp503
a(I5
I4
g497
I0
tp504
a(I5
I3
g497
I0
tp505
a(I5
I2
g497
I0
tp506
a(I5
I1
g497
I0
tp507
a(I5
I0
g497
I0
tp508
a(I5
I0
g497
I-1
tp509
a(I6
I0
g497
I-1
tp510
a(I6
I1
g497
I-1
tp511
a(I6
I2
g497
I-1
tp512
a(I6
I3
g497
I-1
tp513
a(I6
I4
g497
I-1
tp514
a(I6
I5
g497
I-1
tp515
a(I6
I6
g497
I-1
tp516
a(I6
I7
g497
I-1
tp517
a(I6
I8
g497
I-1
tp518
a(I6
I9
g497
I-1
tp519
a(I6
I10
g497
I-1
tp520
a(I6
I10
(g496
(I6
I10
tp521
tp522
I1
tp523
a(I5
I10
g522
I1
tp524
a(I5
I9
g522
I1
tp525
a(I5
I8
g522
I1
tp526
a(I5
I7
g522
I1
tp527
a(I5
I6
g522
I1
tp528
a(I5
I5
g522
I1
tp529
a(I5
I4
g522
I1
tp530
a(I5
I3
g522
I1
tp531
a(I5
I2
g522
I1
tp532
a(I5
I1
g522
I1
tp533
a(I5
I0
g522
I1
tp534
a(I5
I0
g522
I-1
tp535
a(I6
I0
g522
I-1
tp536
a(I7
I0
g522
I-1
tp537
a(I8
I0
g522
I-1
tp538
a(I8
I1
g522
I-1
tp539
a(I8
I2
g522
I-1
tp540
a(I8
I3
g522
I-1
tp541
a(I8
I4
g522
I-1
tp542
a(I8
I5
g522
I-1
tp543
a(I8
I6
g522
I-1
tp544
a(I8
I7
g522
I-1
tp545
a(I8
I8
g522
I-1
tp546
a(I8
I9
g522
I-1
tp547
a(I8
I9
(g496
g521
(I8
I9
ttp548
I2
tp549
a(I7
I9
g548
I2
tp550
a(I6
I9
g548
I2
tp551
a(I5
I9
g548
I2
tp552
a(I5
I8
g548
I2
tp553
a(I5
I7
g548
I2
tp554
a(I5
I6
g548
I2
tp555
a(I5
I5
g548
I2
tp556
a(I5
I4
g548
I2
tp557
a(I5
I3
g548
I2
tp558
a(I5
I2
g548
I2
tp559
a(I5
I1
g548
I2
tp560
a(I5
I0
g548
I2
tp561
aaa(lp562
g277
ag278
aF0.5
aI1
aI00
a(lp563
(I1500
I0
tp564
a(I1200
I0
tp565
a(I1225
I0
tp566
a(I1250
I0
tp567
a(I1258
I0
tp568
a(I1558
I0
tp569
a(I1533
I0
tp570
a(I1508
I0
tp571
aa(lp572
(I5
I0
(tI-1
tp573
a(I4
I0
(tI-1
tp574
a(I4
I1
(tI-1
tp575
a(I4
I2
(tI-1
tp576
a(I4
I2
((I4
I2
ttp577
I-1
tp578
a(I5
I2
g577
I-1
tp579
a(I5
I1
g577
I-1
tp580
a(I5
I0
g577
I-1
tp581
aaa(lp582
g277
ag278
aF0.5
aI3
aI00
a(lp583
(I139500
I0
tp584
a(I111600
I0
tp585
a(I113925
I0
tp586
a(I116250
I0
tp587
a(I116258
I0
tp588
a(I144158
I0
tp589
a(I172058
I0
tp590
a(I199958
I0
tp591
a(I202283
I0
tp592
a(I202407
I0
tp593
a(I200082
I0
tp594
a(I201097
I0
tp595
a(I173197
I0
tp596
a(I145297
I0
tp597
a(I142972
I0
tp598
a(I140647
I0
tp599
aa(lp600
(I5
I0
(tI-1
tp601
a(I4
I0
(tI-1
tp602
a(I4
I1
(tI-1
tp603
a(I4
I2
(tI-1
tp604
a(I4
I2
((I4
I2
tp605
tp606
I-1
tp607
a(I5
I2
g606
I-1
tp608
a(I6
I2
g606
I-1
tp609
a(I7
I2
g606
I-1
tp610
a(I7
I3
g606
I-1
tp611
a(I7
I3
(g605
(I7
I3
tp612
tp613
I-1
tp614
a(I7
I2
g613
I-1
tp615
a(I7
I2
(g605
(I7
I2
tg612
tp616
I-1
tp617
a(I6
I2
g616
I-1
tp618
a(I5
I2
g616
I-1
tp619
a(I5
I1
g616
I-1
tp620
a(I5
I0
g616
I-1
tp621
aaa(lp622
g277
ag278
aF0.5
aI3
aI01
a(lp623
(I558000
I0
tp624
a(I446400
I0
tp625
a(I455700
I0
tp626
a(I465000
I0
tp627
a(I465033
I0
tp628
a(I576633
I0
tp629
a(I567333
I0
tp630
a(I558033
I0
tp631
a(I558032
I0
tp632
a(I669632
I0
tp633
a(I781232
I0
tp634
a(I892832
I0
tp635
a(I902132
I0
tp636
a(I902618
I0
tp637
a(I791018
I0
tp638
a(I679418
I0
tp639
a(I567818
I0
tp640
a(I558518
I0
tp641
a(I558516
I0
tp642
a(I670116
I0
tp643
a(I781716
I0
tp644
a(I791016
I0
tp645
a(I800316
I0
tp646
a(I804382
I0
tp647
a(I692782
I0
tp648
a(I581182
I0
tp649
a(I571882
I0
tp650
a(I562582
I0
tp651
aa(lp652
(I5
I0
(tI-1
tp653
a(I4
I0
(tI-1
tp654
a(I4
I1
(tI-1
tp655
a(I4
I2
(tI-1
tp656
a(I4
I2
((I4
I2
tp657
tp658
I0
tp659
a(I5
I2
g658
I0
tp660
a(I5
I1
g658
I0
tp661
a(I5
I0
g658
I0
tp662
a(I5
I0
g658
I-1
tp663
a(I6
I0
g658
I-1
tp664
a(I7
I0
g658
I-1
tp665
a(I8
I0
g658
I-1
tp666
a(I8
I1
g658
I-1
tp667
a(I8
I1
(g657
(I8
I1
tp668
tp669
I1
tp670
a(I7
I1
g669
I1
tp671
a(I6
I1
g669
I1
tp672
a(I5
I1
g669
I1
tp673
a(I5
I0
g669
I1
tp674
a(I5
I0
g669
I-1
tp675
a(I6
I0
g669
I-1
tp676
a(I7
I0
g669
I-1
tp677
a(I7
I1
g669
I-1
tp678
a(I7
I2
g669
I-1
tp679
a(I7
I2
(g657
(I7
I2
tg668
tp680
I1
tp681
a(I6
I2
g680
I1
tp682
a(I5
I2
g680
I1
tp683
a(I5
I1
g680
I1
tp684
a(I5
I0
g680
I1
tp685
aaa(lp686
S'more 1s than 2s, 2s closer'
p687
a(lp688
g279
ag280
ag7
aS'   1    1 1 '
p689
aS' 1       1  '
p690
ag10
aS'  1   11 1  '
p691
ag12
aS'11     1    '
p692
ag285
ag286
ag16
aaF1
aI1
aI00
a(lp693
(I1500
I0
tp694
a(I1800
I0
tp695
a(I2100
I0
tp696
a(I2125
I0
tp697
a(I2150
I0
tp698
a(I2175
I0
tp699
a(I2178
I0
tp700
a(I1878
I0
tp701
a(I1578
I0
tp702
a(I1553
I0
tp703
a(I1528
I0
tp704
a(I1503
I0
tp705
aa(lp706
(I5
I0
(tI-1
tp707
a(I6
I0
(tI-1
tp708
a(I7
I0
(tI-1
tp709
a(I7
I1
(tI-1
tp710
a(I7
I2
(tI-1
tp711
a(I7
I3
(tI-1
tp712
a(I7
I3
((I7
I3
ttp713
I-1
tp714
a(I6
I3
g713
I-1
tp715
a(I5
I3
g713
I-1
tp716
a(I5
I2
g713
I-1
tp717
a(I5
I1
g713
I-1
tp718
a(I5
I0
g713
I-1
tp719
aaa(lp720
g687
ag688
aF1
aI3
aI00
a(lp721
(I139500
I0
tp722
a(I167400
I0
tp723
a(I195300
I0
tp724
a(I197625
I0
tp725
a(I199950
I0
tp726
a(I202275
I0
tp727
a(I202278
I0
tp728
a(I204603
I0
tp729
a(I206928
I0
tp730
a(I206995
I0
tp731
a(I179095
I0
tp732
a(I179973
I0
tp733
a(I152073
I0
tp734
a(I149748
I0
tp735
a(I147423
I0
tp736
a(I145098
I0
tp737
a(I142773
I0
tp738
a(I140448
I0
tp739
aa(lp740
(I5
I0
(tI-1
tp741
a(I6
I0
(tI-1
tp742
a(I7
I0
(tI-1
tp743
a(I7
I1
(tI-1
tp744
a(I7
I2
(tI-1
tp745
a(I7
I3
(tI-1
tp746
a(I7
I3
((I7
I3
tp747
tp748
I-1
tp749
a(I7
I4
g748
I-1
tp750
a(I7
I5
g748
I-1
tp751
a(I7
I5
(g747
(I7
I5
tp752
tp753
I-1
tp754
a(I6
I5
g753
I-1
tp755
a(I6
I5
((I6
I5
tg747
g752
tp756
I-1
tp757
a(I5
I5
g756
I-1
tp758
a(I5
I4
g756
I-1
tp759
a(I5
I3
g756
I-1
tp760
a(I5
I2
g756
I-1
tp761
a(I5
I1
g756
I-1
tp762
a(I5
I0
g756
I-1
tp763
aaa(lp764
g687
ag688
aF1
aI3
aI01
a(lp765
(I558000
I0
tp766
a(I669600
I0
tp767
a(I781200
I0
tp768
a(I790500
I0
tp769
a(I799800
I0
tp770
a(I809100
I0
tp771
a(I809113
I0
tp772
a(I697513
I0
tp773
a(I585913
I0
tp774
a(I576613
I0
tp775
a(I567313
I0
tp776
a(I558013
I0
tp777
a(I558012
I0
tp778
a(I669612
I0
tp779
a(I678912
I0
tp780
a(I688212
I0
tp781
a(I697512
I0
tp782
a(I706812
I0
tp783
a(I716112
I0
tp784
a(I716509
I0
tp785
a(I604909
I0
tp786
a(I595609
I0
tp787
a(I586309
I0
tp788
a(I577009
I0
tp789
a(I567709
I0
tp790
a(I558409
I0
tp791
a(I558408
I0
tp792
a(I567708
I0
tp793
a(I577008
I0
tp794
a(I586308
I0
tp795
a(I595608
I0
tp796
a(I604908
I0
tp797
a(I614208
I0
tp798
a(I618133
I0
tp799
a(I608833
I0
tp800
a(I599533
I0
tp801
a(I590233
I0
tp802
a(I580933
I0
tp803
a(I571633
I0
tp804
a(I562333
I0
tp805
aa(lp806
(I5
I0
(tI-1
tp807
a(I6
I0
(tI-1
tp808
a(I7
I0
(tI-1
tp809
a(I7
I1
(tI-1
tp810
a(I7
I2
(tI-1
tp811
a(I7
I3
(tI-1
tp812
a(I7
I3
((I7
I3
tp813
tp814
I0
tp815
a(I6
I3
g814
I0
tp816
a(I5
I3
g814
I0
tp817
a(I5
I2
g814
I0
tp818
a(I5
I1
g814
I0
tp819
a(I5
I0
g814
I0
tp820
a(I5
I0
g814
I-1
tp821
a(I6
I0
g814
I-1
tp822
a(I6
I1
g814
I-1
tp823
a(I6
I2
g814
I-1
tp824
a(I6
I3
g814
I-1
tp825
a(I6
I4
g814
I-1
tp826
a(I6
I5
g814
I-1
tp827
a(I6
I5
((I6
I5
tp828
g813
tp829
I0
tp830
a(I5
I5
g829
I0
tp831
a(I5
I4
g829
I0
tp832
a(I5
I3
g829
I0
tp833
a(I5
I2
g829
I0
tp834
a(I5
I1
g829
I0
tp835
a(I5
I0
g829
I0
tp836
a(I5
I0
g829
I-1
tp837
a(I5
I1
g829
I-1
tp838
a(I5
I2
g829
I-1
tp839
a(I5
I3
g829
I-1
tp840
a(I5
I4
g829
I-1
tp841
a(I5
I5
g829
I-1
tp842
a(I5
I6
g829
I-1
tp843
a(I5
I6
((I5
I6
tg828
g813
tp844
I0
tp845
a(I5
I5
g844
I0
tp846
a(I5
I4
g844
I0
tp847
a(I5
I3
g844
I0
tp848
a(I5
I2
g844
I0
tp849
a(I5
I1
g844
I0
tp850
a(I5
I0
g844
I0
tp851
aaa(lp852
g687
ag688
aF0.5
aI1
aI00
a(lp853
(I1500
I0
tp854
a(I1200
I0
tp855
a(I1225
I0
tp856
a(I1250
I0
tp857
a(I1272
I0
tp858
a(I1572
I0
tp859
a(I1547
I0
tp860
a(I1522
I0
tp861
aa(lp862
(I5
I0
(tI-1
tp863
a(I4
I0
(tI-1
tp864
a(I4
I1
(tI-1
tp865
a(I4
I2
(tI-1
tp866
a(I4
I2
((I4
I2
ttp867
I-1
tp868
a(I5
I2
g867
I-1
tp869
a(I5
I1
g867
I-1
tp870
a(I5
I0
g867
I-1
tp871
aaa(lp872
g687
ag688
aF0.5
aI3
aI00
a(lp873
(I139500
I0
tp874
a(I111600
I0
tp875
a(I113925
I0
tp876
a(I116250
I0
tp877
a(I116272
I0
tp878
a(I144172
I0
tp879
a(I172072
I0
tp880
a(I199972
I0
tp881
a(I202297
I0
tp882
a(I202548
I0
tp883
a(I200223
I0
tp884
a(I202206
I0
tp885
a(I174306
I0
tp886
a(I146406
I0
tp887
a(I144081
I0
tp888
a(I141756
I0
tp889
aa(lp890
(I5
I0
(tI-1
tp891
a(I4
I0
(tI-1
tp892
a(I4
I1
(tI-1
tp893
a(I4
I2
(tI-1
tp894
a(I4
I2
((I4
I2
tp895
tp896
I-1
tp897
a(I5
I2
g896
I-1
tp898
a(I6
I2
g896
I-1
tp899
a(I7
I2
g896
I-1
tp900
a(I7
I3
g896
I-1
tp901
a(I7
I3
(g895
(I7
I3
tp902
tp903
I-1
tp904
a(I7
I2
g903
I-1
tp905
a(I7
I2
(g895
(I7
I2
tg902
tp906
I-1
tp907
a(I6
I2
g906
I-1
tp908
a(I5
I2
g906
I-1
tp909
a(I5
I1
g906
I-1
tp910
a(I5
I0
g906
I-1
tp911
aaa(lp912
g687
ag688
aF0.5
aI3
aI01
a(lp913
(I558000
I0
tp914
a(I446400
I0
tp915
a(I455700
I0
tp916
a(I465000
I0
tp917
a(I465089
I0
tp918
a(I576689
I0
tp919
a(I567389
I0
tp920
a(I558089
I0
tp921
a(I558088
I0
tp922
a(I669688
I0
tp923
a(I781288
I0
tp924
a(I892888
I0
tp925
a(I902188
I0
tp926
a(I903242
I0
tp927
a(I791642
I0
tp928
a(I680042
I0
tp929
a(I568442
I0
tp930
a(I559142
I0
tp931
a(I559140
I0
tp932
a(I670740
I0
tp933
a(I782340
I0
tp934
a(I791640
I0
tp935
a(I800940
I0
tp936
a(I808862
I0
tp937
a(I697262
I0
tp938
a(I585662
I0
tp939
a(I576362
I0
tp940
a(I567062
I0
tp941
aa(lp942
(I5
I0
(tI-1
tp943
a(I4
I0
(tI-1
tp944
a(I4
I1
(tI-1
tp945
a(I4
I2
(tI-1
tp946
a(I4
I2
((I4
I2
tp947
tp948
I0
tp949
a(I5
I2
g948
I0
tp950
a(I5
I1
g948
I0
tp951
a(I5
I0
g948
I0
tp952
a(I5
I0
g948
I-1
tp953
a(I6
I0
g948
I-1
tp954
a(I7
I0
g948
I-1
tp955
a(I8
I0
g948
I-1
tp956
a(I8
I1
g948
I-1
tp957
a(I8
I1
(g947
(I8
I1
tp958
tp959
I1
tp960
a(I7
I1
g959
I1
tp961
a(I6
I1
g959
I1
tp962
a(I5
I1
g959
I1
tp963
a(I5
I0
g959
I1
tp964
a(I5
I0
g959
I-1
tp965
a(I6
I0
g959
I-1
tp966
a(I7
I0
g959
I-1
tp967
a(I7
I1
g959
I-1
tp968
a(I7
I2
g959
I-1
tp969
a(I7
I2
(g947
(I7
I2
tg958
tp970
I1
tp971
a(I6
I2
g970
I1
tp972
a(I5
I2
g970
I1
tp973
a(I5
I1
g970
I1
tp974
a(I5
I0
g970
I1
tp975
aaa(lp976
S'even, 2s closer'
p977
a(lp978
g279
ag280
ag7
ag689
ag690
ag281
aS'  1   12 1  '
p979
ag283
ag284
ag285
ag286
ag16
aaF1
aI1
aI00
a(lp980
(I1500
I0
tp981
a(I1800
I0
tp982
a(I1825
I0
tp983
a(I1850
I0
tp984
a(I1875
I0
tp985
a(I1900
I0
tp986
a(I1925
I0
tp987
a(I1927
I0
tp988
a(I1627
I0
tp989
a(I1602
I0
tp990
a(I1577
I0
tp991
a(I1552
I0
tp992
a(I1527
I0
tp993
a(I1502
I0
tp994
aa(lp995
(I5
I0
(tI-1
tp996
a(I6
I0
(tI-1
tp997
a(I6
I1
(tI-1
tp998
a(I6
I2
(tI-1
tp999
a(I6
I3
(tI-1
tp1000
a(I6
I4
(tI-1
tp1001
a(I6
I5
(tI-1
tp1002
a(I6
I5
((I6
I5
ttp1003
I-1
tp1004
a(I5
I5
g1003
I-1
tp1005
a(I5
I4
g1003
I-1
tp1006
a(I5
I3
g1003
I-1
tp1007
a(I5
I2
g1003
I-1
tp1008
a(I5
I1
g1003
I-1
tp1009
a(I5
I0
g1003
I-1
tp1010
aaa(lp1011
g977
ag978
aF1
aI3
aI00
a(lp1012
(I139500
I0
tp1013
a(I167400
I0
tp1014
a(I195300
I0
tp1015
a(I223200
I0
tp1016
a(I251100
I0
tp1017
a(I253425
I0
tp1018
a(I255750
I0
tp1019
a(I258075
I0
tp1020
a(I260400
I0
tp1021
a(I262725
I0
tp1022
a(I265050
I0
tp1023
a(I267375
I0
tp1024
a(I267380
I0
tp1025
a(I265055
I0
tp1026
a(I262730
I0
tp1027
a(I262780
I0
tp1028
a(I234880
I0
tp1029
a(I206980
I0
tp1030
a(I179080
I0
tp1031
a(I179462
I0
tp1032
a(I151562
I0
tp1033
a(I149237
I0
tp1034
a(I146912
I0
tp1035
a(I144587
I0
tp1036
a(I142262
I0
tp1037
a(I139937
I0
tp1038
aa(lp1039
(I5
I0
(tI-1
tp1040
a(I6
I0
(tI-1
tp1041
a(I7
I0
(tI-1
tp1042
a(I8
I0
(tI-1
tp1043
a(I9
I0
(tI-1
tp1044
a(I9
I1
(tI-1
tp1045
a(I9
I2
(tI-1
tp1046
a(I9
I3
(tI-1
tp1047
a(I9
I4
(tI-1
tp1048
a(I9
I5
(tI-1
tp1049
a(I9
I6
(tI-1
tp1050
a(I9
I7
(tI-1
tp1051
a(I9
I7
((I9
I7
tp1052
tp1053
I-1
tp1054
a(I9
I6
g1053
I-1
tp1055
a(I9
I5
g1053
I-1
tp1056
a(I9
I5
((I9
I5
tp1057
g1052
tp1058
I-1
tp1059
a(I8
I5
g1058
I-1
tp1060
a(I7
I5
g1058
I-1
tp1061
a(I6
I5
g1058
I-1
tp1062
a(I6
I5
((I6
I5
tg1057
g1052
tp1063
I-1
tp1064
a(I5
I5
g1063
I-1
tp1065
a(I5
I4
g1063
I-1
tp1066
a(I5
I3
g1063
I-1
tp1067
a(I5
I2
g1063
I-1
tp1068
a(I5
I1
g1063
I-1
tp1069
a(I5
I0
g1063
I-1
tp1070
aaa(lp1071
g977
ag978
aF1
aI3
aI01
a(lp1072
(I558000
I0
tp1073
a(I669600
I0
tp1074
a(I678900
I0
tp1075
a(I688200
I0
tp1076
a(I697500
I0
tp1077
a(I706800
I0
tp1078
a(I716100
I0
tp1079
a(I716109
I0
tp1080
a(I604509
I0
tp1081
a(I595209
I0
tp1082
a(I585909
I0
tp1083
a(I576609
I0
tp1084
a(I567309
I0
tp1085
a(I558009
I0
tp1086
a(I558008
I0
tp1087
a(I446408
I0
tp1088
a(I334808
I0
tp1089
a(I223208
I0
tp1090
a(I232508
I0
tp1091
a(I241808
I0
tp1092
a(I251108
I0
tp1093
a(I260408
I0
tp1094
a(I269708
I0
tp1095
a(I269801
I0
tp1096
a(I381401
I0
tp1097
a(I493001
I0
tp1098
a(I604601
I0
tp1099
a(I595301
I0
tp1100
a(I586001
I0
tp1101
a(I576701
I0
tp1102
a(I567401
I0
tp1103
a(I558101
I0
tp1104
a(I558100
I0
tp1105
a(I669700
I0
tp1106
a(I781300
I0
tp1107
a(I892900
I0
tp1108
a(I1004500
I0
tp1109
a(I1013800
I0
tp1110
a(I1023100
I0
tp1111
a(I1032400
I0
tp1112
a(I1041700
I0
tp1113
a(I1051000
I0
tp1114
a(I1052107
I0
tp1115
a(I940507
I0
tp1116
a(I828907
I0
tp1117
a(I717307
I0
tp1118
a(I605707
I0
tp1119
a(I596407
I0
tp1120
a(I587107
I0
tp1121
a(I577807
I0
tp1122
a(I568507
I0
tp1123
a(I559207
I0
tp1124
aa(lp1125
(I5
I0
(tI-1
tp1126
a(I6
I0
(tI-1
tp1127
a(I6
I1
(tI-1
tp1128
a(I6
I2
(tI-1
tp1129
a(I6
I3
(tI-1
tp1130
a(I6
I4
(tI-1
tp1131
a(I6
I5
(tI-1
tp1132
a(I6
I5
((I6
I5
tp1133
tp1134
I0
tp1135
a(I5
I5
g1134
I0
tp1136
a(I5
I4
g1134
I0
tp1137
a(I5
I3
g1134
I0
tp1138
a(I5
I2
g1134
I0
tp1139
a(I5
I1
g1134
I0
tp1140
a(I5
I0
g1134
I0
tp1141
a(I5
I0
g1134
I-1
tp1142
a(I4
I0
g1134
I-1
tp1143
a(I3
I0
g1134
I-1
tp1144
a(I2
I0
g1134
I-1
tp1145
a(I2
I1
g1134
I-1
tp1146
a(I2
I2
g1134
I-1
tp1147
a(I2
I3
g1134
I-1
tp1148
a(I2
I4
g1134
I-1
tp1149
a(I2
I5
g1134
I-1
tp1150
a(I2
I5
((I2
I5
tp1151
g1133
tp1152
I0
tp1153
a(I3
I5
g1152
I0
tp1154
a(I4
I5
g1152
I0
tp1155
a(I5
I5
g1152
I0
tp1156
a(I5
I4
g1152
I0
tp1157
a(I5
I3
g1152
I0
tp1158
a(I5
I2
g1152
I0
tp1159
a(I5
I1
g1152
I0
tp1160
a(I5
I0
g1152
I0
tp1161
a(I5
I0
g1152
I-1
tp1162
a(I6
I0
g1152
I-1
tp1163
a(I7
I0
g1152
I-1
tp1164
a(I8
I0
g1152
I-1
tp1165
a(I9
I0
g1152
I-1
tp1166
a(I9
I1
g1152
I-1
tp1167
a(I9
I2
g1152
I-1
tp1168
a(I9
I3
g1152
I-1
tp1169
a(I9
I4
g1152
I-1
tp1170
a(I9
I5
g1152
I-1
tp1171
a(I9
I5
(g1151
g1133
(I9
I5
ttp1172
I2
tp1173
a(I8
I5
g1172
I2
tp1174
a(I7
I5
g1172
I2
tp1175
a(I6
I5
g1172
I2
tp1176
a(I5
I5
g1172
I2
tp1177
a(I5
I4
g1172
I2
tp1178
a(I5
I3
g1172
I2
tp1179
a(I5
I2
g1172
I2
tp1180
a(I5
I1
g1172
I2
tp1181
a(I5
I0
g1172
I2
tp1182
aaa(lp1183
g977
ag978
aF0.5
aI1
aI00
a(lp1184
(I1500
I0
tp1185
a(I1200
I0
tp1186
a(I1225
I0
tp1187
a(I1250
I0
tp1188
a(I1265
I0
tp1189
a(I1565
I0
tp1190
a(I1540
I0
tp1191
a(I1515
I0
tp1192
aa(lp1193
(I5
I0
(tI-1
tp1194
a(I4
I0
(tI-1
tp1195
a(I4
I1
(tI-1
tp1196
a(I4
I2
(tI-1
tp1197
a(I4
I2
((I4
I2
ttp1198
I-1
tp1199
a(I5
I2
g1198
I-1
tp1200
a(I5
I1
g1198
I-1
tp1201
a(I5
I0
g1198
I-1
tp1202
aaa(lp1203
g977
ag978
aF0.5
aI3
aI00
a(lp1204
(I139500
I0
tp1205
a(I111600
I0
tp1206
a(I113925
I0
tp1207
a(I116250
I0
tp1208
a(I116265
I0
tp1209
a(I144165
I0
tp1210
a(I172065
I0
tp1211
a(I199965
I0
tp1212
a(I202290
I0
tp1213
a(I202475
I0
tp1214
a(I200150
I0
tp1215
a(I201537
I0
tp1216
a(I173637
I0
tp1217
a(I145737
I0
tp1218
a(I143412
I0
tp1219
a(I141087
I0
tp1220
aa(lp1221
(I5
I0
(tI-1
tp1222
a(I4
I0
(tI-1
tp1223
a(I4
I1
(tI-1
tp1224
a(I4
I2
(tI-1
tp1225
a(I4
I2
((I4
I2
tp1226
tp1227
I-1
tp1228
a(I5
I2
g1227
I-1
tp1229
a(I6
I2
g1227
I-1
tp1230
a(I7
I2
g1227
I-1
tp1231
a(I7
I3
g1227
I-1
tp1232
a(I7
I3
(g1226
(I7
I3
tp1233
tp1234
I-1
tp1235
a(I7
I2
g1234
I-1
tp1236
a(I7
I2
(g1226
(I7
I2
tg1233
tp1237
I-1
tp1238
a(I6
I2
g1237
I-1
tp1239
a(I5
I2
g1237
I-1
tp1240
a(I5
I1
g1237
I-1
tp1241
a(I5
I0
g1237
I-1
tp1242
aaa(lp1243
g977
ag978
aF0.5
aI3
aI01
a(lp1244
(I558000
I0
tp1245
a(I446400
I0
tp1246
a(I455700
I0
tp1247
a(I465000
I0
tp1248
a(I465061
I0
tp1249
a(I576661
I0
tp1250
a(I567361
I0
tp1251
a(I558061
I0
tp1252
a(I558060
I0
tp1253
a(I669660
I0
tp1254
a(I781260
I0
tp1255
a(I892860
I0
tp1256
a(I902160
I0
tp1257
a(I902890
I0
tp1258
a(I791290
I0
tp1259
a(I679690
I0
tp1260
a(I568090
I0
tp1261
a(I558790
I0
tp1262
a(I558788
I0
tp1263
a(I670388
I0
tp1264
a(I781988
I0
tp1265
a(I791288
I0
tp1266
a(I800588
I0
tp1267
a(I806142
I0
tp1268
a(I694542
I0
tp1269
a(I582942
I0
tp1270
a(I573642
I0
tp1271
a(I564342
I0
tp1272
aa(lp1273
(I5
I0
(tI-1
tp1274
a(I4
I0
(tI-1
tp1275
a(I4
I1
(tI-1
tp1276
a(I4
I2
(tI-1
tp1277
a(I4
I2
((I4
I2
tp1278
tp1279
I0
tp1280
a(I5
I2
g1279
I0
tp1281
a(I5
I1
g1279
I0
tp1282
a(I5
I0
g1279
I0
tp1283
a(I5
I0
g1279
I-1
tp1284
a(I6
I0
g1279
I-1
tp1285
a(I7
I0
g1279
I-1
tp1286
a(I8
I0
g1279
I-1
tp1287
a(I8
I1
g1279
I-1
tp1288
a(I8
I1
(g1278
(I8
I1
tp1289
tp1290
I1
tp1291
a(I7
I1
g1290
I1
tp1292
a(I6
I1
g1290
I1
tp1293
a(I5
I1
g1290
I1
tp1294
a(I5
I0
g1290
I1
tp1295
a(I5
I0
g1290
I-1
tp1296
a(I6
I0
g1290
I-1
tp1297
a(I7
I0
g1290
I-1
tp1298
a(I7
I1
g1290
I-1
tp1299
a(I7
I2
g1290
I-1
tp1300
a(I7
I2
(g1278
(I7
I2
tg1289
tp1301
I1
tp1302
a(I6
I2
g1301
I1
tp1303
a(I5
I2
g1301
I1
tp1304
a(I5
I1
g1301
I1
tp1305
a(I5
I0
g1301
I1
tp1306
aaa(lp1307
S'even, 1s closer'
p1308
a(lp1309
g5
ag6
aS'2       2   '
p1310
aS'   2    2 2 '
p1311
ag9
ag10
ag11
ag12
ag692
aS'    1  1  1 '
p1312
aS' 1      1   '
p1313
ag16
aaF1
aI1
aI00
a(lp1314
(I1500
I0
tp1315
a(I1200
I0
tp1316
a(I1225
I0
tp1317
a(I1250
I0
tp1318
a(I1253
I0
tp1319
a(I1553
I0
tp1320
a(I1528
I0
tp1321
a(I1503
I0
tp1322
aa(lp1323
(I5
I0
(tI-1
tp1324
a(I4
I0
(tI-1
tp1325
a(I4
I1
(tI-1
tp1326
a(I4
I2
(tI-1
tp1327
a(I4
I2
((I4
I2
ttp1328
I-1
tp1329
a(I5
I2
g1328
I-1
tp1330
a(I5
I1
g1328
I-1
tp1331
a(I5
I0
g1328
I-1
tp1332
aaa(lp1333
g1308
ag1309
aF1
aI3
aI00
a(lp1334
(I139500
I0
tp1335
a(I111600
I0
tp1336
a(I113925
I0
tp1337
a(I116250
I0
tp1338
a(I116253
I0
tp1339
a(I144153
I0
tp1340
a(I172053
I0
tp1341
a(I199953
I0
tp1342
a(I202278
I0
tp1343
a(I202332
I0
tp1344
a(I200007
I0
tp1345
a(I200499
I0
tp1346
a(I172599
I0
tp1347
a(I144699
I0
tp1348
a(I142374
I0
tp1349
a(I140049
I0
tp1350
aa(lp1351
(I5
I0
(tI-1
tp1352
a(I4
I0
(tI-1
tp1353
a(I4
I1
(tI-1
tp1354
a(I4
I2
(tI-1
tp1355
a(I4
I2
((I4
I2
tp1356
tp1357
I-1
tp1358
a(I5
I2
g1357
I-1
tp1359
a(I6
I2
g1357
I-1
tp1360
a(I7
I2
g1357
I-1
tp1361
a(I7
I3
g1357
I-1
tp1362
a(I7
I3
(g1356
(I7
I3
tp1363
tp1364
I-1
tp1365
a(I7
I2
g1364
I-1
tp1366
a(I7
I2
(g1356
(I7
I2
tg1363
tp1367
I-1
tp1368
a(I6
I2
g1367
I-1
tp1369
a(I5
I2
g1367
I-1
tp1370
a(I5
I1
g1367
I-1
tp1371
a(I5
I0
g1367
I-1
tp1372
aaa(lp1373
g1308
ag1309
aF1
aI3
aI01
a(lp1374
(I558000
I0
tp1375
a(I446400
I0
tp1376
a(I455700
I0
tp1377
a(I465000
I0
tp1378
a(I465013
I0
tp1379
a(I576613
I0
tp1380
a(I567313
I0
tp1381
a(I558013
I0
tp1382
a(I558012
I0
tp1383
a(I669612
I0
tp1384
a(I781212
I0
tp1385
a(I892812
I0
tp1386
a(I902112
I0
tp1387
a(I902318
I0
tp1388
a(I790718
I0
tp1389
a(I679118
I0
tp1390
a(I567518
I0
tp1391
a(I558218
I0
tp1392
a(I558216
I0
tp1393
a(I669816
I0
tp1394
a(I781416
I0
tp1395
a(I790716
I0
tp1396
a(I800016
I0
tp1397
a(I801990
I0
tp1398
a(I690390
I0
tp1399
a(I578790
I0
tp1400
a(I569490
I0
tp1401
a(I560190
I0
tp1402
aa(lp1403
(I5
I0
(tI-1
tp1404
a(I4
I0
(tI-1
tp1405
a(I4
I1
(tI-1
tp1406
a(I4
I2
(tI-1
tp1407
a(I4
I2
((I4
I2
tp1408
tp1409
I0
tp1410
a(I5
I2
g1409
I0
tp1411
a(I5
I1
g1409
I0
tp1412
a(I5
I0
g1409
I0
tp1413
a(I5
I0
g1409
I-1
tp1414
a(I6
I0
g1409
I-1
tp1415
a(I7
I0
g1409
I-1
tp1416
a(I8
I0
g1409
I-1
tp1417
a(I8
I1
g1409
I-1
tp1418
a(I8
I1
(g1408
(I8
I1
tp1419
tp1420
I1
tp1421
a(I7
I1
g1420
I1
tp1422
a(I6
I1
g1420
I1
tp1423
a(I5
I1
g1420
I1
tp1424
a(I5
I0
g1420
I1
tp1425
a(I5
I0
g1420
I-1
tp1426
a(I6
I0
g1420
I-1
tp1427
a(I7
I0
g1420
I-1
tp1428
a(I7
I1
g1420
I-1
tp1429
a(I7
I2
g1420
I-1
tp1430
a(I7
I2
(g1408
(I7
I2
tg1419
tp1431
I1
tp1432
a(I6
I2
g1431
I1
tp1433
a(I5
I2
g1431
I1
tp1434
a(I5
I1
g1431
I1
tp1435
a(I5
I0
g1431
I1
tp1436
aaa(lp1437
g1308
ag1309
aF0.5
aI1
aI00
a(lp1438
(I1500
I0
tp1439
a(I1200
I0
tp1440
a(I1225
I0
tp1441
a(I1250
I0
tp1442
a(I1253
I0
tp1443
a(I1553
I0
tp1444
a(I1528
I0
tp1445
a(I1503
I0
tp1446
aa(lp1447
(I5
I0
(tI-1
tp1448
a(I4
I0
(tI-1
tp1449
a(I4
I1
(tI-1
tp1450
a(I4
I2
(tI-1
tp1451
a(I4
I2
((I4
I2
ttp1452
I-1
tp1453
a(I5
I2
g1452
I-1
tp1454
a(I5
I1
g1452
I-1
tp1455
a(I5
I0
g1452
I-1
tp1456
aaa(lp1457
g1308
ag1309
aF0.5
aI3
aI00
a(lp1458
(I139500
I0
tp1459
a(I111600
I0
tp1460
a(I113925
I0
tp1461
a(I116250
I0
tp1462
a(I116253
I0
tp1463
a(I144153
I0
tp1464
a(I172053
I0
tp1465
a(I199953
I0
tp1466
a(I202278
I0
tp1467
a(I202332
I0
tp1468
a(I200007
I0
tp1469
a(I200499
I0
tp1470
a(I172599
I0
tp1471
a(I144699
I0
tp1472
a(I142374
I0
tp1473
a(I140049
I0
tp1474
aa(lp1475
(I5
I0
(tI-1
tp1476
a(I4
I0
(tI-1
tp1477
a(I4
I1
(tI-1
tp1478
a(I4
I2
(tI-1
tp1479
a(I4
I2
((I4
I2
tp1480
tp1481
I-1
tp1482
a(I5
I2
g1481
I-1
tp1483
a(I6
I2
g1481
I-1
tp1484
a(I7
I2
g1481
I-1
tp1485
a(I7
I3
g1481
I-1
tp1486
a(I7
I3
(g1480
(I7
I3
tp1487
tp1488
I-1
tp1489
a(I7
I2
g1488
I-1
tp1490
a(I7
I2
(g1480
(I7
I2
tg1487
tp1491
I-1
tp1492
a(I6
I2
g1491
I-1
tp1493
a(I5
I2
g1491
I-1
tp1494
a(I5
I1
g1491
I-1
tp1495
a(I5
I0
g1491
I-1
tp1496
aaa(lp1497
g1308
ag1309
aF0.5
aI3
aI01
a(lp1498
(I558000
I0
tp1499
a(I446400
I0
tp1500
a(I455700
I0
tp1501
a(I465000
I0
tp1502
a(I465013
I0
tp1503
a(I576613
I0
tp1504
a(I567313
I0
tp1505
a(I558013
I0
tp1506
a(I558012
I0
tp1507
a(I669612
I0
tp1508
a(I781212
I0
tp1509
a(I892812
I0
tp1510
a(I902112
I0
tp1511
a(I902318
I0
tp1512
a(I790718
I0
tp1513
a(I679118
I0
tp1514
a(I567518
I0
tp1515
a(I558218
I0
tp1516
a(I558216
I0
tp1517
a(I669816
I0
tp1518
a(I781416
I0
tp1519
a(I790716
I0
tp1520
a(I800016
I0
tp1521
a(I801990
I0
tp1522
a(I690390
I0
tp1523
a(I578790
I0
tp1524
a(I569490
I0
tp1525
a(I560190
I0
tp1526
aa(lp1527
(I5
I0
(tI-1
tp1528
a(I4
I0
(tI-1
tp1529
a(I4
I1
(tI-1
tp1530
a(I4
I2
(tI-1
tp1531
a(I4
I2
((I4
I2
tp1532
tp1533
I0
tp1534
a(I5
I2
g1533
I0
tp1535
a(I5
I1
g1533
I0
tp1536
a(I5
I0
g1533
I0
tp1537
a(I5
I0
g1533
I-1
tp1538
a(I6
I0
g1533
I-1
tp1539
a(I7
I0
g1533
I-1
tp1540
a(I8
I0
g1533
I-1
tp1541
a(I8
I1
g1533
I-1
tp1542
a(I8
I1
(g1532
(I8
I1
tp1543
tp1544
I1
tp1545
a(I7
I1
g1544
I1
tp1546
a(I6
I1
g1544
I1
tp1547
a(I5
I1
g1544
I1
tp1548
a(I5
I0
g1544
I1
tp1549
a(I5
I0
g1544
I-1
tp1550
a(I6
I0
g1544
I-1
tp1551
a(I7
I0
g1544
I-1
tp1552
a(I7
I1
g1544
I-1
tp1553
a(I7
I2
g1544
I-1
tp1554
a(I7
I2
(g1532
(I7
I2
tg1543
tp1555
I1
tp1556
a(I6
I2
g1555
I1
tp1557
a(I5
I2
g1555
I1
tp1558
a(I5
I1
g1555
I1
tp1559
a(I5
I0
g1555
I1
tp1560
aaa(lp1561
S'more 1s than 2s'
p1562
a(lp1563
g279
ag280
aS'2       1   '
p1564
aS'   1    1 2 '
p1565
ag690
ag10
aS'  1   21 2  '
p1566
ag12
ag692
ag14
ag1313
ag16
aaF1
aI1
aI00
a(lp1567
(I1500
I0
tp1568
a(I1200
I0
tp1569
a(I1225
I0
tp1570
a(I1250
I0
tp1571
a(I1253
I0
tp1572
a(I1553
I0
tp1573
a(I1528
I0
tp1574
a(I1503
I0
tp1575
aa(lp1576
(I5
I0
(tI-1
tp1577
a(I4
I0
(tI-1
tp1578
a(I4
I1
(tI-1
tp1579
a(I4
I2
(tI-1
tp1580
a(I4
I2
((I4
I2
ttp1581
I-1
tp1582
a(I5
I2
g1581
I-1
tp1583
a(I5
I1
g1581
I-1
tp1584
a(I5
I0
g1581
I-1
tp1585
aaa(lp1586
g1562
ag1563
aF1
aI3
aI00
a(lp1587
(I139500
I0
tp1588
a(I111600
I0
tp1589
a(I83700
I0
tp1590
a(I55800
I0
tp1591
a(I27900
I0
tp1592
a(I30225
I0
tp1593
a(I30226
I0
tp1594
a(I32551
I0
tp1595
a(I34876
I0
tp1596
a(I34903
I0
tp1597
a(I62803
I0
tp1598
a(I90703
I0
tp1599
a(I118603
I0
tp1600
a(I116278
I0
tp1601
a(I116577
I0
tp1602
a(I144477
I0
tp1603
a(I142152
I0
tp1604
a(I139827
I0
tp1605
aa(lp1606
(I5
I0
(tI-1
tp1607
a(I4
I0
(tI-1
tp1608
a(I3
I0
(tI-1
tp1609
a(I2
I0
(tI-1
tp1610
a(I1
I0
(tI-1
tp1611
a(I1
I1
(tI-1
tp1612
a(I1
I1
((I1
I1
tp1613
tp1614
I-1
tp1615
a(I1
I2
g1614
I-1
tp1616
a(I1
I3
g1614
I-1
tp1617
a(I1
I3
(g1613
(I1
I3
tp1618
tp1619
I-1
tp1620
a(I2
I3
g1619
I-1
tp1621
a(I3
I3
g1619
I-1
tp1622
a(I4
I3
g1619
I-1
tp1623
a(I4
I2
g1619
I-1
tp1624
a(I4
I2
(g1613
g1618
(I4
I2
ttp1625
I-1
tp1626
a(I5
I2
g1625
I-1
tp1627
a(I5
I1
g1625
I-1
tp1628
a(I5
I0
g1625
I-1
tp1629
aaa(lp1630
g1562
ag1563
aF1
aI3
aI01
a(lp1631
(I558000
I0
tp1632
a(I446400
I0
tp1633
a(I455700
I0
tp1634
a(I465000
I0
tp1635
a(I465013
I0
tp1636
a(I576613
I0
tp1637
a(I567313
I0
tp1638
a(I558013
I0
tp1639
a(I558012
I0
tp1640
a(I669612
I0
tp1641
a(I781212
I0
tp1642
a(I892812
I0
tp1643
a(I902112
I0
tp1644
a(I902318
I0
tp1645
a(I790718
I0
tp1646
a(I679118
I0
tp1647
a(I567518
I0
tp1648
a(I558218
I0
tp1649
a(I558216
I0
tp1650
a(I446616
I0
tp1651
a(I335016
I0
tp1652
a(I223416
I0
tp1653
a(I111816
I0
tp1654
a(I121116
I0
tp1655
a(I122137
I0
tp1656
a(I233737
I0
tp1657
a(I345337
I0
tp1658
a(I456937
I0
tp1659
a(I568537
I0
tp1660
a(I559237
I0
tp1661
aa(lp1662
(I5
I0
(tI-1
tp1663
a(I4
I0
(tI-1
tp1664
a(I4
I1
(tI-1
tp1665
a(I4
I2
(tI-1
tp1666
a(I4
I2
((I4
I2
tp1667
tp1668
I0
tp1669
a(I5
I2
g1668
I0
tp1670
a(I5
I1
g1668
I0
tp1671
a(I5
I0
g1668
I0
tp1672
a(I5
I0
g1668
I-1
tp1673
a(I6
I0
g1668
I-1
tp1674
a(I7
I0
g1668
I-1
tp1675
a(I8
I0
g1668
I-1
tp1676
a(I8
I1
g1668
I-1
tp1677
a(I8
I1
(g1667
(I8
I1
tp1678
tp1679
I1
tp1680
a(I7
I1
g1679
I1
tp1681
a(I6
I1
g1679
I1
tp1682
a(I5
I1
g1679
I1
tp1683
a(I5
I0
g1679
I1
tp1684
a(I5
I0
g1679
I-1
tp1685
a(I4
I0
g1679
I-1
tp1686
a(I3
I0
g1679
I-1
tp1687
a(I2
I0
g1679
I-1
tp1688
a(I1
I0
g1679
I-1
tp1689
a(I1
I1
g1679
I-1
tp1690
a(I1
I1
((I1
I1
tg1667
g1678
tp1691
I0
tp1692
a(I2
I1
g1691
I0
tp1693
a(I3
I1
g1691
I0
tp1694
a(I4
I1
g1691
I0
tp1695
a(I5
I1
g1691
I0
tp1696
a(I5
I0
g1691
I0
tp1697
aaa(lp1698
g1562
ag1563
aF0.5
aI1
aI00
a(lp1699
(I1500
I0
tp1700
a(I1200
I0
tp1701
a(I1225
I0
tp1702
a(I1250
I0
tp1703
a(I1253
I0
tp1704
a(I1553
I0
tp1705
a(I1528
I0
tp1706
a(I1503
I0
tp1707
aa(lp1708
(I5
I0
(tI-1
tp1709
a(I4
I0
(tI-1
tp1710
a(I4
I1
(tI-1
tp1711
a(I4
I2
(tI-1
tp1712
a(I4
I2
((I4
I2
ttp1713
I-1
tp1714
a(I5
I2
g1713
I-1
tp1715
a(I5
I1
g1713
I-1
tp1716
a(I5
I0
g1713
I-1
tp1717
aaa(lp1718
g1562
ag1563
aF0.5
aI3
aI00
a(lp1719
(I139500
I0
tp1720
a(I111600
I0
tp1721
a(I113925
I0
tp1722
a(I116250
I0
tp1723
a(I116253
I0
tp1724
a(I144153
I0
tp1725
a(I172053
I0
tp1726
a(I199953
I0
tp1727
a(I202278
I0
tp1728
a(I202331
I0
tp1729
a(I200006
I0
tp1730
a(I200567
I0
tp1731
a(I172667
I0
tp1732
a(I144767
I0
tp1733
a(I142442
I0
tp1734
a(I140117
I0
tp1735
aa(lp1736
(I5
I0
(tI-1
tp1737
a(I4
I0
(tI-1
tp1738
a(I4
I1
(tI-1
tp1739
a(I4
I2
(tI-1
tp1740
a(I4
I2
((I4
I2
tp1741
tp1742
I-1
tp1743
a(I5
I2
g1742
I-1
tp1744
a(I6
I2
g1742
I-1
tp1745
a(I7
I2
g1742
I-1
tp1746
a(I7
I3
g1742
I-1
tp1747
a(I7
I3
(g1741
(I7
I3
tp1748
tp1749
I-1
tp1750
a(I7
I2
g1749
I-1
tp1751
a(I7
I2
(g1741
(I7
I2
tg1748
tp1752
I-1
tp1753
a(I6
I2
g1752
I-1
tp1754
a(I5
I2
g1752
I-1
tp1755
a(I5
I1
g1752
I-1
tp1756
a(I5
I0
g1752
I-1
tp1757
aaa(lp1758
g1562
ag1563
aF0.5
aI3
aI01
a(lp1759
(I558000
I0
tp1760
a(I446400
I0
tp1761
a(I455700
I0
tp1762
a(I465000
I0
tp1763
a(I465013
I0
tp1764
a(I576613
I0
tp1765
a(I567313
I0
tp1766
a(I558013
I0
tp1767
a(I558012
I0
tp1768
a(I669612
I0
tp1769
a(I781212
I0
tp1770
a(I892812
I0
tp1771
a(I902112
I0
tp1772
a(I902318
I0
tp1773
a(I790718
I0
tp1774
a(I679118
I0
tp1775
a(I567518
I0
tp1776
a(I558218
I0
tp1777
a(I558216
I0
tp1778
a(I669816
I0
tp1779
a(I781416
I0
tp1780
a(I790716
I0
tp1781
a(I800016
I0
tp1782
a(I802262
I0
tp1783
a(I690662
I0
tp1784
a(I579062
I0
tp1785
a(I569762
I0
tp1786
a(I560462
I0
tp1787
aa(lp1788
(I5
I0
(tI-1
tp1789
a(I4
I0
(tI-1
tp1790
a(I4
I1
(tI-1
tp1791
a(I4
I2
(tI-1
tp1792
a(I4
I2
((I4
I2
tp1793
tp1794
I0
tp1795
a(I5
I2
g1794
I0
tp1796
a(I5
I1
g1794
I0
tp1797
a(I5
I0
g1794
I0
tp1798
a(I5
I0
g1794
I-1
tp1799
a(I6
I0
g1794
I-1
tp1800
a(I7
I0
g1794
I-1
tp1801
a(I8
I0
g1794
I-1
tp1802
a(I8
I1
g1794
I-1
tp1803
a(I8
I1
(g1793
(I8
I1
tp1804
tp1805
I1
tp1806
a(I7
I1
g1805
I1
tp1807
a(I6
I1
g1805
I1
tp1808
a(I5
I1
g1805
I1
tp1809
a(I5
I0
g1805
I1
tp1810
a(I5
I0
g1805
I-1
tp1811
a(I6
I0
g1805
I-1
tp1812
a(I7
I0
g1805
I-1
tp1813
a(I7
I1
g1805
I-1
tp1814
a(I7
I2
g1805
I-1
tp1815
a(I7
I2
(g1793
(I7
I2
tg1804
tp1816
I1
tp1817
a(I6
I2
g1816
I1
tp1818
a(I5
I2
g1816
I1
tp1819
a(I5
I1
g1816
I1
tp1820
a(I5
I0
g1816
I1
tp1821
aaa(lp1822
S'more 1s than 2s, 1s closer'
p1823
a(lp1824
g5
ag6
ag1310
aS'   2    1 1 '
p1825
ag690
ag10
ag691
ag12
ag692
ag1312
ag1313
ag16
aaF1
aI1
aI00
a(lp1826
(I1500
I0
tp1827
a(I1200
I0
tp1828
a(I1225
I0
tp1829
a(I1250
I0
tp1830
a(I1253
I0
tp1831
a(I1553
I0
tp1832
a(I1528
I0
tp1833
a(I1503
I0
tp1834
aa(lp1835
(I5
I0
(tI-1
tp1836
a(I4
I0
(tI-1
tp1837
a(I4
I1
(tI-1
tp1838
a(I4
I2
(tI-1
tp1839
a(I4
I2
((I4
I2
ttp1840
I-1
tp1841
a(I5
I2
g1840
I-1
tp1842
a(I5
I1
g1840
I-1
tp1843
a(I5
I0
g1840
I-1
tp1844
aaa(lp1845
g1823
ag1824
aF1
aI3
aI00
a(lp1846
(I139500
I0
tp1847
a(I111600
I0
tp1848
a(I113925
I0
tp1849
a(I116250
I0
tp1850
a(I116253
I0
tp1851
a(I144153
I0
tp1852
a(I172053
I0
tp1853
a(I199953
I0
tp1854
a(I202278
I0
tp1855
a(I202332
I0
tp1856
a(I200007
I0
tp1857
a(I200499
I0
tp1858
a(I172599
I0
tp1859
a(I144699
I0
tp1860
a(I142374
I0
tp1861
a(I140049
I0
tp1862
aa(lp1863
(I5
I0
(tI-1
tp1864
a(I4
I0
(tI-1
tp1865
a(I4
I1
(tI-1
tp1866
a(I4
I2
(tI-1
tp1867
a(I4
I2
((I4
I2
tp1868
tp1869
I-1
tp1870
a(I5
I2
g1869
I-1
tp1871
a(I6
I2
g1869
I-1
tp1872
a(I7
I2
g1869
I-1
tp1873
a(I7
I3
g1869
I-1
tp1874
a(I7
I3
(g1868
(I7
I3
tp1875
tp1876
I-1
tp1877
a(I7
I2
g1876
I-1
tp1878
a(I7
I2
(g1868
(I7
I2
tg1875
tp1879
I-1
tp1880
a(I6
I2
g1879
I-1
tp1881
a(I5
I2
g1879
I-1
tp1882
a(I5
I1
g1879
I-1
tp1883
a(I5
I0
g1879
I-1
tp1884
aaa(lp1885
g1823
ag1824
aF1
aI3
aI01
a(lp1886
(I558000
I0
tp1887
a(I446400
I0
tp1888
a(I455700
I0
tp1889
a(I465000
I0
tp1890
a(I465013
I0
tp1891
a(I576613
I0
tp1892
a(I567313
I0
tp1893
a(I558013
I0
tp1894
a(I558012
I0
tp1895
a(I669612
I0
tp1896
a(I781212
I0
tp1897
a(I892812
I0
tp1898
a(I902112
I0
tp1899
a(I902318
I0
tp1900
a(I790718
I0
tp1901
a(I679118
I0
tp1902
a(I567518
I0
tp1903
a(I558218
I0
tp1904
a(I558216
I0
tp1905
a(I669816
I0
tp1906
a(I781416
I0
tp1907
a(I790716
I0
tp1908
a(I800016
I0
tp1909
a(I801990
I0
tp1910
a(I690390
I0
tp1911
a(I578790
I0
tp1912
a(I569490
I0
tp1913
a(I560190
I0
tp1914
aa(lp1915
(I5
I0
(tI-1
tp1916
a(I4
I0
(tI-1
tp1917
a(I4
I1
(tI-1
tp1918
a(I4
I2
(tI-1
tp1919
a(I4
I2
((I4
I2
tp1920
tp1921
I0
tp1922
a(I5
I2
g1921
I0
tp1923
a(I5
I1
g1921
I0
tp1924
a(I5
I0
g1921
I0
tp1925
a(I5
I0
g1921
I-1
tp1926
a(I6
I0
g1921
I-1
tp1927
a(I7
I0
g1921
I-1
tp1928
a(I8
I0
g1921
I-1
tp1929
a(I8
I1
g1921
I-1
tp1930
a(I8
I1
(g1920
(I8
I1
tp1931
tp1932
I1
tp1933
a(I7
I1
g1932
I1
tp1934
a(I6
I1
g1932
I1
tp1935
a(I5
I1
g1932
I1
tp1936
a(I5
I0
g1932
I1
tp1937
a(I5
I0
g1932
I-1
tp1938
a(I6
I0
g1932
I-1
tp1939
a(I7
I0
g1932
I-1
tp1940
a(I7
I1
g1932
I-1
tp1941
a(I7
I2
g1932
I-1
tp1942
a(I7
I2
(g1920
(I7
I2
tg1931
tp1943
I1
tp1944
a(I6
I2
g1943
I1
tp1945
a(I5
I2
g1943
I1
tp1946
a(I5
I1
g1943
I1
tp1947
a(I5
I0
g1943
I1
tp1948
aaa(lp1949
g1823
ag1824
aF0.5
aI1
aI00
a(lp1950
(I1500
I0
tp1951
a(I1200
I0
tp1952
a(I1225
I0
tp1953
a(I1250
I0
tp1954
a(I1253
I0
tp1955
a(I1553
I0
tp1956
a(I1528
I0
tp1957
a(I1503
I0
tp1958
aa(lp1959
(I5
I0
(tI-1
tp1960
a(I4
I0
(tI-1
tp1961
a(I4
I1
(tI-1
tp1962
a(I4
I2
(tI-1
tp1963
a(I4
I2
((I4
I2
ttp1964
I-1
tp1965
a(I5
I2
g1964
I-1
tp1966
a(I5
I1
g1964
I-1
tp1967
a(I5
I0
g1964
I-1
tp1968
aaa(lp1969
g1823
ag1824
aF0.5
aI3
aI00
a(lp1970
(I139500
I0
tp1971
a(I111600
I0
tp1972
a(I113925
I0
tp1973
a(I116250
I0
tp1974
a(I116253
I0
tp1975
a(I144153
I0
tp1976
a(I172053
I0
tp1977
a(I199953
I0
tp1978
a(I202278
I0
tp1979
a(I202332
I0
tp1980
a(I200007
I0
tp1981
a(I200499
I0
tp1982
a(I172599
I0
tp1983
a(I144699
I0
tp1984
a(I142374
I0
tp1985
a(I140049
I0
tp1986
aa(lp1987
(I5
I0
(tI-1
tp1988
a(I4
I0
(tI-1
tp1989
a(I4
I1
(tI-1
tp1990
a(I4
I2
(tI-1
tp1991
a(I4
I2
((I4
I2
tp1992
tp1993
I-1
tp1994
a(I5
I2
g1993
I-1
tp1995
a(I6
I2
g1993
I-1
tp1996
a(I7
I2
g1993
I-1
tp1997
a(I7
I3
g1993
I-1
tp1998
a(I7
I3
(g1992
(I7
I3
tp1999
tp2000
I-1
tp2001
a(I7
I2
g2000
I-1
tp2002
a(I7
I2
(g1992
(I7
I2
tg1999
tp2003
I-1
tp2004
a(I6
I2
g2003
I-1
tp2005
a(I5
I2
g2003
I-1
tp2006
a(I5
I1
g2003
I-1
tp2007
a(I5
I0
g2003
I-1
tp2008
aaa(lp2009
g1823
ag1824
aF0.5
aI3
aI01
a(lp2010
(I558000
I0
tp2011
a(I446400
I0
tp2012
a(I455700
I0
tp2013
a(I465000
I0
tp2014
a(I465013
I0
tp2015
a(I576613
I0
tp2016
a(I567313
I0
tp2017
a(I558013
I0
tp2018
a(I558012
I0
tp2019
a(I669612
I0
tp2020
a(I781212
I0
tp2021
a(I892812
I0
tp2022
a(I902112
I0
tp2023
a(I902318
I0
tp2024
a(I790718
I0
tp2025
a(I679118
I0
tp2026
a(I567518
I0
tp2027
a(I558218
I0
tp2028
a(I558216
I0
tp2029
a(I669816
I0
tp2030
a(I781416
I0
tp2031
a(I790716
I0
tp2032
a(I800016
I0
tp2033
a(I801990
I0
tp2034
a(I690390
I0
tp2035
a(I578790
I0
tp2036
a(I569490
I0
tp2037
a(I560190
I0
tp2038
aa(lp2039
(I5
I0
(tI-1
tp2040
a(I4
I0
(tI-1
tp2041
a(I4
I1
(tI-1
tp2042
a(I4
I2
(tI-1
tp2043
a(I4
I2
((I4
I2
tp2044
tp2045
I0
tp2046
a(I5
I2
g2045
I0
tp2047
a(I5
I1
g2045
I0
tp2048
a(I5
I0
g2045
I0
tp2049
a(I5
I0
g2045
I-1
tp2050
a(I6
I0
g2045
I-1
tp2051
a(I7
I0
g2045
I-1
tp2052
a(I8
I0
g2045
I-1
tp2053
a(I8
I1
g2045
I-1
tp2054
a(I8
I1
(g2044
(I8
I1
tp2055
tp2056
I1
tp2057
a(I7
I1
g2056
I1
tp2058
a(I6
I1
g2056
I1
tp2059
a(I5
I1
g2056
I1
tp2060
a(I5
I0
g2056
I1
tp2061
a(I5
I0
g2056
I-1
tp2062
a(I6
I0
g2056
I-1
tp2063
a(I7
I0
g2056
I-1
tp2064
a(I7
I1
g2056
I-1
tp2065
a(I7
I2
g2056
I-1
tp2066
a(I7
I2
(g2044
(I7
I2
tg2055
tp2067
I1
tp2068
a(I6
I2
g2067
I1
tp2069
a(I5
I2
g2067
I1
tp2070
a(I5
I1
g2067
I1
tp2071
a(I5
I0
g2067
I1
tp2072
aaa(lp2073
S'more 2s than 1s'
p2074
a(lp2075
g5
ag6
aS'1       2   '
p2076
aS'   2    2 1 '
p2077
ag9
ag281
aS'  2   12 1  '
p2078
ag283
ag284
aS'    2  1  2 '
p2079
ag286
ag16
aaF1
aI1
aI00
a(lp2080
(I1500
I0
tp2081
a(I1800
I0
tp2082
a(I2100
I0
tp2083
a(I2125
I0
tp2084
a(I2150
I0
tp2085
a(I2151
I0
tp2086
a(I1851
I0
tp2087
a(I1551
I0
tp2088
a(I1526
I0
tp2089
a(I1501
I0
tp2090
aa(lp2091
(I5
I0
(tI-1
tp2092
a(I6
I0
(tI-1
tp2093
a(I7
I0
(tI-1
tp2094
a(I7
I1
(tI-1
tp2095
a(I7
I2
(tI-1
tp2096
a(I7
I2
((I7
I2
ttp2097
I-1
tp2098
a(I6
I2
g2097
I-1
tp2099
a(I5
I2
g2097
I-1
tp2100
a(I5
I1
g2097
I-1
tp2101
a(I5
I0
g2097
I-1
tp2102
aaa(lp2103
g2074
ag2075
aF1
aI3
aI00
a(lp2104
(I139500
I0
tp2105
a(I167400
I0
tp2106
a(I195300
I0
tp2107
a(I197625
I0
tp2108
a(I199950
I0
tp2109
a(I199951
I0
tp2110
a(I227851
I0
tp2111
a(I255751
I0
tp2112
a(I258076
I0
tp2113
a(I260401
I0
tp2114
a(I262726
I0
tp2115
a(I262750
I0
tp2116
a(I234850
I0
tp2117
a(I206950
I0
tp2118
a(I179050
I0
tp2119
a(I179381
I0
tp2120
a(I151481
I0
tp2121
a(I149156
I0
tp2122
a(I146831
I0
tp2123
a(I144506
I0
tp2124
a(I142181
I0
tp2125
a(I139856
I0
tp2126
aa(lp2127
(I5
I0
(tI-1
tp2128
a(I6
I0
(tI-1
tp2129
a(I7
I0
(tI-1
tp2130
a(I7
I1
(tI-1
tp2131
a(I7
I2
(tI-1
tp2132
a(I7
I2
((I7
I2
tp2133
tp2134
I-1
tp2135
a(I8
I2
g2134
I-1
tp2136
a(I9
I2
g2134
I-1
tp2137
a(I9
I3
g2134
I-1
tp2138
a(I9
I4
g2134
I-1
tp2139
a(I9
I5
g2134
I-1
tp2140
a(I9
I5
(g2133
(I9
I5
tp2141
tp2142
I-1
tp2143
a(I8
I5
g2142
I-1
tp2144
a(I7
I5
g2142
I-1
tp2145
a(I6
I5
g2142
I-1
tp2146
a(I6
I5
((I6
I5
tg2133
g2141
tp2147
I-1
tp2148
a(I5
I5
g2147
I-1
tp2149
a(I5
I4
g2147
I-1
tp2150
a(I5
I3
g2147
I-1
tp2151
a(I5
I2
g2147
I-1
tp2152
a(I5
I1
g2147
I-1
tp2153
a(I5
I0
g2147
I-1
tp2154
aaa(lp2155
g2074
ag2075
aF1
aI3
aI01
a(lp2156
(I558000
I0
tp2157
a(I669600
I0
tp2158
a(I781200
I0
tp2159
a(I790500
I0
tp2160
a(I799800
I0
tp2161
a(I799805
I0
tp2162
a(I688205
I0
tp2163
a(I576605
I0
tp2164
a(I567305
I0
tp2165
a(I558005
I0
tp2166
a(I558004
I0
tp2167
a(I669604
I0
tp2168
a(I678904
I0
tp2169
a(I688204
I0
tp2170
a(I697504
I0
tp2171
a(I706804
I0
tp2172
a(I716104
I0
tp2173
a(I716245
I0
tp2174
a(I604645
I0
tp2175
a(I595345
I0
tp2176
a(I586045
I0
tp2177
a(I576745
I0
tp2178
a(I567445
I0
tp2179
a(I558145
I0
tp2180
a(I558144
I0
tp2181
a(I669744
I0
tp2182
a(I781344
I0
tp2183
a(I892944
I0
tp2184
a(I1004544
I0
tp2185
a(I1013844
I0
tp2186
a(I1023144
I0
tp2187
a(I1032444
I0
tp2188
a(I1041744
I0
tp2189
a(I1051044
I0
tp2190
a(I1052327
I0
tp2191
a(I940727
I0
tp2192
a(I829127
I0
tp2193
a(I717527
I0
tp2194
a(I605927
I0
tp2195
a(I596627
I0
tp2196
a(I587327
I0
tp2197
a(I578027
I0
tp2198
a(I568727
I0
tp2199
a(I559427
I0
tp2200
aa(lp2201
(I5
I0
(tI-1
tp2202
a(I6
I0
(tI-1
tp2203
a(I7
I0
(tI-1
tp2204
a(I7
I1
(tI-1
tp2205
a(I7
I2
(tI-1
tp2206
a(I7
I2
((I7
I2
tp2207
tp2208
I0
tp2209
a(I6
I2
g2208
I0
tp2210
a(I5
I2
g2208
I0
tp2211
a(I5
I1
g2208
I0
tp2212
a(I5
I0
g2208
I0
tp2213
a(I5
I0
g2208
I-1
tp2214
a(I6
I0
g2208
I-1
tp2215
a(I6
I1
g2208
I-1
tp2216
a(I6
I2
g2208
I-1
tp2217
a(I6
I3
g2208
I-1
tp2218
a(I6
I4
g2208
I-1
tp2219
a(I6
I5
g2208
I-1
tp2220
a(I6
I5
((I6
I5
tp2221
g2207
tp2222
I0
tp2223
a(I5
I5
g2222
I0
tp2224
a(I5
I4
g2222
I0
tp2225
a(I5
I3
g2222
I0
tp2226
a(I5
I2
g2222
I0
tp2227
a(I5
I1
g2222
I0
tp2228
a(I5
I0
g2222
I0
tp2229
a(I5
I0
g2222
I-1
tp2230
a(I6
I0
g2222
I-1
tp2231
a(I7
I0
g2222
I-1
tp2232
a(I8
I0
g2222
I-1
tp2233
a(I9
I0
g2222
I-1
tp2234
a(I9
I1
g2222
I-1
tp2235
a(I9
I2
g2222
I-1
tp2236
a(I9
I3
g2222
I-1
tp2237
a(I9
I4
g2222
I-1
tp2238
a(I9
I5
g2222
I-1
tp2239
a(I9
I5
(g2221
g2207
(I9
I5
ttp2240
I2
tp2241
a(I8
I5
g2240
I2
tp2242
a(I7
I5
g2240
I2
tp2243
a(I6
I5
g2240
I2
tp2244
a(I5
I5
g2240
I2
tp2245
a(I5
I4
g2240
I2
tp2246
a(I5
I3
g2240
I2
tp2247
a(I5
I2
g2240
I2
tp2248
a(I5
I1
g2240
I2
tp2249
a(I5
I0
g2240
I2
tp2250
aaa(lp2251
g2074
ag2075
aF0.5
aI1
aI00
a(lp2252
(I1500
I0
tp2253
a(I1200
I0
tp2254
a(I1225
I0
tp2255
a(I1250
I0
tp2256
a(I1258
I0
tp2257
a(I1558
I0
tp2258
a(I1533
I0
tp2259
a(I1508
I0
tp2260
aa(lp2261
(I5
I0
(tI-1
tp2262
a(I4
I0
(tI-1
tp2263
a(I4
I1
(tI-1
tp2264
a(I4
I2
(tI-1
tp2265
a(I4
I2
((I4
I2
ttp2266
I-1
tp2267
a(I5
I2
g2266
I-1
tp2268
a(I5
I1
g2266
I-1
tp2269
a(I5
I0
g2266
I-1
tp2270
aaa(lp2271
g2074
ag2075
aF0.5
aI3
aI00
a(lp2272
(I139500
I0
tp2273
a(I111600
I0
tp2274
a(I113925
I0
tp2275
a(I116250
I0
tp2276
a(I116258
I0
tp2277
a(I144158
I0
tp2278
a(I172058
I0
tp2279
a(I199958
I0
tp2280
a(I202283
I0
tp2281
a(I202386
I0
tp2282
a(I200061
I0
tp2283
a(I200863
I0
tp2284
a(I172963
I0
tp2285
a(I145063
I0
tp2286
a(I142738
I0
tp2287
a(I140413
I0
tp2288
aa(lp2289
(I5
I0
(tI-1
tp2290
a(I4
I0
(tI-1
tp2291
a(I4
I1
(tI-1
tp2292
a(I4
I2
(tI-1
tp2293
a(I4
I2
((I4
I2
tp2294
tp2295
I-1
tp2296
a(I5
I2
g2295
I-1
tp2297
a(I6
I2
g2295
I-1
tp2298
a(I7
I2
g2295
I-1
tp2299
a(I7
I3
g2295
I-1
tp2300
a(I7
I3
(g2294
(I7
I3
tp2301
tp2302
I-1
tp2303
a(I7
I2
g2302
I-1
tp2304
a(I7
I2
(g2294
(I7
I2
tg2301
tp2305
I-1
tp2306
a(I6
I2
g2305
I-1
tp2307
a(I5
I2
g2305
I-1
tp2308
a(I5
I1
g2305
I-1
tp2309
a(I5
I0
g2305
I-1
tp2310
aaa(lp2311
g2074
ag2075
aF0.5
aI3
aI01
a(lp2312
(I558000
I0
tp2313
a(I446400
I0
tp2314
a(I455700
I0
tp2315
a(I465000
I0
tp2316
a(I465033
I0
tp2317
a(I576633
I0
tp2318
a(I567333
I0
tp2319
a(I558033
I0
tp2320
a(I558032
I0
tp2321
a(I669632
I0
tp2322
a(I781232
I0
tp2323
a(I892832
I0
tp2324
a(I902132
I0
tp2325
a(I902538
I0
tp2326
a(I790938
I0
tp2327
a(I679338
I0
tp2328
a(I567738
I0
tp2329
a(I558438
I0
tp2330
a(I558436
I0
tp2331
a(I670036
I0
tp2332
a(I781636
I0
tp2333
a(I790936
I0
tp2334
a(I800236
I0
tp2335
a(I803446
I0
tp2336
a(I691846
I0
tp2337
a(I580246
I0
tp2338
a(I570946
I0
tp2339
a(I561646
I0
tp2340
aa(lp2341
(I5
I0
(tI-1
tp2342
a(I4
I0
(tI-1
tp2343
a(I4
I1
(tI-1
tp2344
a(I4
I2
(tI-1
tp2345
a(I4
I2
((I4
I2
tp2346
tp2347
I0
tp2348
a(I5
I2
g2347
I0
tp2349
a(I5
I1
g2347
I0
tp2350
a(I5
I0
g2347
I0
tp2351
a(I5
I0
g2347
I-1
tp2352
a(I6
I0
g2347
I-1
tp2353
a(I7
I0
g2347
I-1
tp2354
a(I8
I0
g2347
I-1
tp2355
a(I8
I1
g2347
I-1
tp2356
a(I8
I1
(g2346
(I8
I1
tp2357
tp2358
I1
tp2359
a(I7
I1
g2358
I1
tp2360
a(I6
I1
g2358
I1
tp2361
a(I5
I1
g2358
I1
tp2362
a(I5
I0
g2358
I1
tp2363
a(I5
I0
g2358
I-1
tp2364
a(I6
I0
g2358
I-1
tp2365
a(I7
I0
g2358
I-1
tp2366
a(I7
I1
g2358
I-1
tp2367
a(I7
I2
g2358
I-1
tp2368
a(I7
I2
(g2346
(I7
I2
tg2357
tp2369
I1
tp2370
a(I6
I2
g2369
I1
tp2371
a(I5
I2
g2369
I1
tp2372
a(I5
I1
g2369
I1
tp2373
a(I5
I0
g2369
I1
tp2374
aaa(lp2375
S'more 2s than 1s, 1s closer'
p2376
a(lp2377
g5
ag6
ag1310
ag1311
ag9
ag281
ag282
ag283
ag284
ag1312
ag1313
ag16
aaF1
aI1
aI00
a(lp2378
(I1500
I0
tp2379
a(I1200
I0
tp2380
a(I1225
I0
tp2381
a(I1250
I0
tp2382
a(I1253
I0
tp2383
a(I1553
I0
tp2384
a(I1528
I0
tp2385
a(I1503
I0
tp2386
aa(lp2387
(I5
I0
(tI-1
tp2388
a(I4
I0
(tI-1
tp2389
a(I4
I1
(tI-1
tp2390
a(I4
I2
(tI-1
tp2391
a(I4
I2
((I4
I2
ttp2392
I-1
tp2393
a(I5
I2
g2392
I-1
tp2394
a(I5
I1
g2392
I-1
tp2395
a(I5
I0
g2392
I-1
tp2396
aaa(lp2397
g2376
ag2377
aF1
aI3
aI00
a(lp2398
(I139500
I0
tp2399
a(I111600
I0
tp2400
a(I113925
I0
tp2401
a(I116250
I0
tp2402
a(I116253
I0
tp2403
a(I144153
I0
tp2404
a(I172053
I0
tp2405
a(I199953
I0
tp2406
a(I200005
I0
tp2407
a(I227905
I0
tp2408
a(I225580
I0
tp2409
a(I226072
I0
tp2410
a(I198172
I0
tp2411
a(I170272
I0
tp2412
a(I142372
I0
tp2413
a(I140047
I0
tp2414
aa(lp2415
(I5
I0
(tI-1
tp2416
a(I4
I0
(tI-1
tp2417
a(I4
I1
(tI-1
tp2418
a(I4
I2
(tI-1
tp2419
a(I4
I2
((I4
I2
tp2420
tp2421
I-1
tp2422
a(I5
I2
g2421
I-1
tp2423
a(I6
I2
g2421
I-1
tp2424
a(I7
I2
g2421
I-1
tp2425
a(I7
I2
(g2420
(I7
I2
tp2426
tp2427
I-1
tp2428
a(I8
I2
g2427
I-1
tp2429
a(I8
I1
g2427
I-1
tp2430
a(I8
I1
(g2420
g2426
(I8
I1
ttp2431
I-1
tp2432
a(I7
I1
g2431
I-1
tp2433
a(I6
I1
g2431
I-1
tp2434
a(I5
I1
g2431
I-1
tp2435
a(I5
I0
g2431
I-1
tp2436
aaa(lp2437
g2376
ag2377
aF1
aI3
aI01
a(lp2438
(I558000
I0
tp2439
a(I446400
I0
tp2440
a(I455700
I0
tp2441
a(I465000
I0
tp2442
a(I465013
I0
tp2443
a(I576613
I0
tp2444
a(I567313
I0
tp2445
a(I558013
I0
tp2446
a(I558012
I0
tp2447
a(I669612
I0
tp2448
a(I781212
I0
tp2449
a(I892812
I0
tp2450
a(I902112
I0
tp2451
a(I902318
I0
tp2452
a(I790718
I0
tp2453
a(I679118
I0
tp2454
a(I567518
I0
tp2455
a(I558218
I0
tp2456
a(I558216
I0
tp2457
a(I669816
I0
tp2458
a(I781416
I0
tp2459
a(I790716
I0
tp2460
a(I800016
I0
tp2461
a(I801990
I0
tp2462
a(I690390
I0
tp2463
a(I578790
I0
tp2464
a(I569490
I0
tp2465
a(I560190
I0
tp2466
aa(lp2467
(I5
I0
(tI-1
tp2468
a(I4
I0
(tI-1
tp2469
a(I4
I1
(tI-1
tp2470
a(I4
I2
(tI-1
tp2471
a(I4
I2
((I4
I2
tp2472
tp2473
I0
tp2474
a(I5
I2
g2473
I0
tp2475
a(I5
I1
g2473
I0
tp2476
a(I5
I0
g2473
I0
tp2477
a(I5
I0
g2473
I-1
tp2478
a(I6
I0
g2473
I-1
tp2479
a(I7
I0
g2473
I-1
tp2480
a(I8
I0
g2473
I-1
tp2481
a(I8
I1
g2473
I-1
tp2482
a(I8
I1
(g2472
(I8
I1
tp2483
tp2484
I1
tp2485
a(I7
I1
g2484
I1
tp2486
a(I6
I1
g2484
I1
tp2487
a(I5
I1
g2484
I1
tp2488
a(I5
I0
g2484
I1
tp2489
a(I5
I0
g2484
I-1
tp2490
a(I6
I0
g2484
I-1
tp2491
a(I7
I0
g2484
I-1
tp2492
a(I7
I1
g2484
I-1
tp2493
a(I7
I2
g2484
I-1
tp2494
a(I7
I2
(g2472
(I7
I2
tg2483
tp2495
I1
tp2496
a(I6
I2
g2495
I1
tp2497
a(I5
I2
g2495
I1
tp2498
a(I5
I1
g2495
I1
tp2499
a(I5
I0
g2495
I1
tp2500
aaa(lp2501
g2376
ag2377
aF0.5
aI1
aI00
a(lp2502
(I1500
I0
tp2503
a(I1200
I0
tp2504
a(I1225
I0
tp2505
a(I1250
I0
tp2506
a(I1253
I0
tp2507
a(I1553
I0
tp2508
a(I1528
I0
tp2509
a(I1503
I0
tp2510
aa(lp2511
(I5
I0
(tI-1
tp2512
a(I4
I0
(tI-1
tp2513
a(I4
I1
(tI-1
tp2514
a(I4
I2
(tI-1
tp2515
a(I4
I2
((I4
I2
ttp2516
I-1
tp2517
a(I5
I2
g2516
I-1
tp2518
a(I5
I1
g2516
I-1
tp2519
a(I5
I0
g2516
I-1
tp2520
aaa(lp2521
g2376
ag2377
aF0.5
aI3
aI00
a(lp2522
(I139500
I0
tp2523
a(I111600
I0
tp2524
a(I113925
I0
tp2525
a(I116250
I0
tp2526
a(I116253
I0
tp2527
a(I144153
I0
tp2528
a(I172053
I0
tp2529
a(I199953
I0
tp2530
a(I202278
I0
tp2531
a(I202332
I0
tp2532
a(I200007
I0
tp2533
a(I200499
I0
tp2534
a(I172599
I0
tp2535
a(I144699
I0
tp2536
a(I142374
I0
tp2537
a(I140049
I0
tp2538
aa(lp2539
(I5
I0
(tI-1
tp2540
a(I4
I0
(tI-1
tp2541
a(I4
I1
(tI-1
tp2542
a(I4
I2
(tI-1
tp2543
a(I4
I2
((I4
I2
tp2544
tp2545
I-1
tp2546
a(I5
I2
g2545
I-1
tp2547
a(I6
I2
g2545
I-1
tp2548
a(I7
I2
g2545
I-1
tp2549
a(I7
I3
g2545
I-1
tp2550
a(I7
I3
(g2544
(I7
I3
tp2551
tp2552
I-1
tp2553
a(I7
I2
g2552
I-1
tp2554
a(I7
I2
(g2544
(I7
I2
tg2551
tp2555
I-1
tp2556
a(I6
I2
g2555
I-1
tp2557
a(I5
I2
g2555
I-1
tp2558
a(I5
I1
g2555
I-1
tp2559
a(I5
I0
g2555
I-1
tp2560
aaa(lp2561
g2376
ag2377
aF0.5
aI3
aI01
a(lp2562
(I558000
I0
tp2563
a(I446400
I0
tp2564
a(I455700
I0
tp2565
a(I465000
I0
tp2566
a(I465013
I0
tp2567
a(I576613
I0
tp2568
a(I567313
I0
tp2569
a(I558013
I0
tp2570
a(I558012
I0
tp2571
a(I669612
I0
tp2572
a(I781212
I0
tp2573
a(I892812
I0
tp2574
a(I902112
I0
tp2575
a(I902318
I0
tp2576
a(I790718
I0
tp2577
a(I679118
I0
tp2578
a(I567518
I0
tp2579
a(I558218
I0
tp2580
a(I558216
I0
tp2581
a(I669816
I0
tp2582
a(I781416
I0
tp2583
a(I790716
I0
tp2584
a(I800016
I0
tp2585
a(I801990
I0
tp2586
a(I690390
I0
tp2587
a(I578790
I0
tp2588
a(I569490
I0
tp2589
a(I560190
I0
tp2590
aa(lp2591
(I5
I0
(tI-1
tp2592
a(I4
I0
(tI-1
tp2593
a(I4
I1
(tI-1
tp2594
a(I4
I2
(tI-1
tp2595
a(I4
I2
((I4
I2
tp2596
tp2597
I0
tp2598
a(I5
I2
g2597
I0
tp2599
a(I5
I1
g2597
I0
tp2600
a(I5
I0
g2597
I0
tp2601
a(I5
I0
g2597
I-1
tp2602
a(I6
I0
g2597
I-1
tp2603
a(I7
I0
g2597
I-1
tp2604
a(I8
I0
g2597
I-1
tp2605
a(I8
I1
g2597
I-1
tp2606
a(I8
I1
(g2596
(I8
I1
tp2607
tp2608
I1
tp2609
a(I7
I1
g2608
I1
tp2610
a(I6
I1
g2608
I1
tp2611
a(I5
I1
g2608
I1
tp2612
a(I5
I0
g2608
I1
tp2613
a(I5
I0
g2608
I-1
tp2614
a(I6
I0
g2608
I-1
tp2615
a(I7
I0
g2608
I-1
tp2616
a(I7
I1
g2608
I-1
tp2617
a(I7
I2
g2608
I-1
tp2618
a(I7
I2
(g2596
(I7
I2
tg2607
tp2619
I1
tp2620
a(I6
I2
g2619
I1
tp2621
a(I5
I2
g2619
I1
tp2622
a(I5
I1
g2619
I1
tp2623
a(I5
I0
g2619
I1
tp2624
aaa.